target datalayout = "e-m:e-p270:32:32-p271:32:32-p272:64:64-i64:64-i128:128-f80:128-n8:16:32:64-S128"
target triple = "x86_64-pc-linux-gnu"

%"class.std::__cxx11::basic_string" = type { %"struct.std::__cxx11::basic_string<char>::_Alloc_hider", i64, %union.anon }
%"struct.std::__cxx11::basic_string<char>::_Alloc_hider" = type { ptr }
%union.anon = type { i64, [8 x i8] }
%class.anon = type { i8 }
%"class.pxrInternal_v0_24__pxrReserved__::TfCallContext" = type <{ ptr, ptr, i64, ptr, i8, [7 x i8] }>

@.str.5 = private unnamed_addr constant [119 x i8] c"generated/home/dtcxzyw/WorkSpace/Projects/compilers/llvm-opt-benchmark/bench/openusd/OpenUSD/pxr/usd/sdf/assetPath.cpp\00", align 1
@__func__._ZN32pxrInternal_v0_24__pxrReserved__L24_ValidateAssetPathStringEPKc = private unnamed_addr constant [25 x i8] c"_ValidateAssetPathString\00", align 1
@__PRETTY_FUNCTION__._ZN32pxrInternal_v0_24__pxrReserved__L24_ValidateAssetPathStringEPKc = private unnamed_addr constant [78 x i8] c"bool pxrInternal_v0_24__pxrReserved__::_ValidateAssetPathString(const char *)\00", align 1
@.str.6 = private unnamed_addr constant [68 x i8] c"Invalid asset path string -- character %d is control character 0x%x\00", align 1
@.str.7 = private unnamed_addr constant [47 x i8] c"Invalid asset path string -- character %d: %s\0A\00", align 1

; Function Attrs: mustprogress nounwind uwtable
define linkonce_odr void @_ZN32pxrInternal_v0_24__pxrReserved__13TfCallContextC2EPKcS2_mS2_(ptr noundef nonnull align 8 dereferenceable(33) %0, ptr noundef %1, ptr noundef %2, i64 noundef %3, ptr noundef %4) unnamed_addr #2 comdat align 2 {
  %6 = alloca ptr, align 8
  %7 = alloca ptr, align 8
  %8 = alloca ptr, align 8
  %9 = alloca i64, align 8
  %10 = alloca ptr, align 8
  store ptr %0, ptr %6, align 8
  store ptr %1, ptr %7, align 8
  store ptr %2, ptr %8, align 8
  store i64 %3, ptr %9, align 8
  store ptr %4, ptr %10, align 8
  %11 = load ptr, ptr %6, align 8
  %12 = getelementptr inbounds nuw %"class.pxrInternal_v0_24__pxrReserved__::TfCallContext", ptr %11, i32 0, i32 0
  %13 = load ptr, ptr %7, align 8
  store ptr %13, ptr %12, align 8
  %14 = getelementptr inbounds nuw %"class.pxrInternal_v0_24__pxrReserved__::TfCallContext", ptr %11, i32 0, i32 1
  %15 = load ptr, ptr %8, align 8
  store ptr %15, ptr %14, align 8
  %16 = getelementptr inbounds nuw %"class.pxrInternal_v0_24__pxrReserved__::TfCallContext", ptr %11, i32 0, i32 2
  %17 = load i64, ptr %9, align 8
  store i64 %17, ptr %16, align 8
  %18 = getelementptr inbounds nuw %"class.pxrInternal_v0_24__pxrReserved__::TfCallContext", ptr %11, i32 0, i32 3
  %19 = load ptr, ptr %10, align 8
  store ptr %19, ptr %18, align 8
  %20 = getelementptr inbounds nuw %"class.pxrInternal_v0_24__pxrReserved__::TfCallContext", ptr %11, i32 0, i32 4
  store i8 0, ptr %20, align 8
  ret void
}

; Function Attrs: mustprogress nounwind uwtable
define internal noundef zeroext i1 @"_ZZN32pxrInternal_v0_24__pxrReserved__L24_ValidateAssetPathStringEPKcENK3$_0clEi"(ptr noundef nonnull align 1 dereferenceable(1) %0, i32 noundef %1) #2 align 2 {
  %3 = alloca ptr, align 8
  %4 = alloca i32, align 4
  store ptr %0, ptr %3, align 8
  store i32 %1, ptr %4, align 4
  %5 = load i32, ptr %4, align 4
  %6 = icmp sle i32 0, %5
  br i1 %6, label %7, label %10

7:                                                ; preds = %2
  %8 = load i32, ptr %4, align 4
  %9 = icmp sle i32 %8, 31
  br i1 %9, label %21, label %10

10:                                               ; preds = %7, %2
  %11 = load i32, ptr %4, align 4
  %12 = icmp eq i32 %11, 127
  br i1 %12, label %21, label %13

13:                                               ; preds = %10
  %14 = load i32, ptr %4, align 4
  %15 = icmp sle i32 128, %14
  br i1 %15, label %16, label %19

16:                                               ; preds = %13
  %17 = load i32, ptr %4, align 4
  %18 = icmp sle i32 %17, 159
  br label %19

19:                                               ; preds = %16, %13
  %20 = phi i1 [ false, %13 ], [ %18, %16 ]
  br label %21

21:                                               ; preds = %19, %10, %7
  %22 = phi i1 [ true, %10 ], [ true, %7 ], [ %20, %19 ]
  ret i1 %22
}

; Function Attrs: mustprogress uwtable
define internal noundef zeroext i1 @_ZN32pxrInternal_v0_24__pxrReserved__L24_ValidateAssetPathStringEPKc(ptr noundef %0) #0 personality ptr @__gxx_personality_v0 {
  %2 = alloca i1, align 1
  %3 = alloca ptr, align 8
  %4 = alloca %class.anon, align 1
  %5 = alloca ptr, align 8
  %6 = alloca %"class.std::__cxx11::basic_string", align 8
  %7 = alloca i32, align 4
  %8 = alloca ptr, align 8
  %9 = alloca i32, align 4
  %10 = alloca i32, align 4
  %11 = alloca %"class.pxrInternal_v0_24__pxrReserved__::TfCallContext", align 8
  %12 = alloca i32, align 4
  %13 = alloca %"class.pxrInternal_v0_24__pxrReserved__::TfCallContext", align 8
  store ptr %0, ptr %3, align 8
  %14 = load ptr, ptr %3, align 8
  store ptr %14, ptr %5, align 8
  call void @_ZNSt7__cxx1112basic_stringIcSt11char_traitsIcESaIcEEC1Ev(ptr noundef nonnull align 8 dereferenceable(32) %6) #5
  %15 = invoke noundef i32 @_ZN32pxrInternal_v0_24__pxrReserved__L9_ReadUTF8ERPKhPNSt7__cxx1112basic_stringIcSt11char_traitsIcESaIcEEE(ptr noundef nonnull align 8 dereferenceable(8) %5, ptr noundef %6)
          to label %16 unwind label %29

16:                                               ; preds = %1
  store i32 %15, ptr %7, align 4
  store i32 1, ptr %10, align 4
  br label %17

17:                                               ; preds = %38, %16
  %18 = load i32, ptr %7, align 4
  %19 = icmp sgt i32 %18, 0
  br i1 %19, label %20, label %39

20:                                               ; preds = %17
  %21 = load i32, ptr %7, align 4
  %22 = invoke noundef zeroext i1 @"_ZZN32pxrInternal_v0_24__pxrReserved__L24_ValidateAssetPathStringEPKcENK3$_0clEi"(ptr noundef nonnull align 1 dereferenceable(1) %4, i32 noundef %21)
          to label %23 unwind label %29

23:                                               ; preds = %20
  br i1 %22, label %24, label %33

24:                                               ; preds = %23
  invoke void @_ZN32pxrInternal_v0_24__pxrReserved__13TfCallContextC2EPKcS2_mS2_(ptr noundef nonnull align 8 dereferenceable(33) %11, ptr noundef @.str.5, ptr noundef @__func__._ZN32pxrInternal_v0_24__pxrReserved__L24_ValidateAssetPathStringEPKc, i64 noundef 108, ptr noundef @__PRETTY_FUNCTION__._ZN32pxrInternal_v0_24__pxrReserved__L24_ValidateAssetPathStringEPKc)
          to label %25 unwind label %29

25:                                               ; preds = %24
  %26 = load i32, ptr %10, align 4
  %27 = load i32, ptr %7, align 4
  invoke void (ptr, i32, ptr, ...) @_ZN32pxrInternal_v0_24__pxrReserved__18Tf_PostErrorHelperERKNS_13TfCallContextENS_16TfDiagnosticTypeEPKcz(ptr noundef nonnull align 8 dereferenceable(33) %11, i32 noundef 1, ptr noundef @.str.6, i32 noundef %26, i32 noundef %27)
          to label %28 unwind label %29

28:                                               ; preds = %25
  store i1 false, ptr %2, align 1
  store i32 1, ptr %12, align 4
  br label %48

29:                                               ; preds = %43, %42, %36, %25, %24, %20, %1
  %30 = landingpad { ptr, i32 }
          cleanup
  %31 = extractvalue { ptr, i32 } %30, 0
  store ptr %31, ptr %8, align 8
  %32 = extractvalue { ptr, i32 } %30, 1
  store i32 %32, ptr %9, align 4
  call void @_ZNSt7__cxx1112basic_stringIcSt11char_traitsIcESaIcEED1Ev(ptr noundef nonnull align 8 dereferenceable(32) %6) #5
  br label %50

33:                                               ; preds = %23
  %34 = load i32, ptr %10, align 4
  %35 = add nsw i32 %34, 1
  store i32 %35, ptr %10, align 4
  br label %36

36:                                               ; preds = %33
  %37 = invoke noundef i32 @_ZN32pxrInternal_v0_24__pxrReserved__L9_ReadUTF8ERPKhPNSt7__cxx1112basic_stringIcSt11char_traitsIcESaIcEEE(ptr noundef nonnull align 8 dereferenceable(8) %5, ptr noundef %6)
          to label %38 unwind label %29

38:                                               ; preds = %36
  store i32 %37, ptr %7, align 4
  br label %17, !llvm.loop !4

39:                                               ; preds = %17
  %40 = load i32, ptr %7, align 4
  %41 = icmp eq i32 %40, -1
  br i1 %41, label %42, label %47

42:                                               ; preds = %39
  invoke void @_ZN32pxrInternal_v0_24__pxrReserved__13TfCallContextC2EPKcS2_mS2_(ptr noundef nonnull align 8 dereferenceable(33) %13, ptr noundef @.str.5, ptr noundef @__func__._ZN32pxrInternal_v0_24__pxrReserved__L24_ValidateAssetPathStringEPKc, i64 noundef 115, ptr noundef @__PRETTY_FUNCTION__._ZN32pxrInternal_v0_24__pxrReserved__L24_ValidateAssetPathStringEPKc)
          to label %43 unwind label %29

43:                                               ; preds = %42
  %44 = load i32, ptr %10, align 4
  %45 = call noundef ptr @_ZNKSt7__cxx1112basic_stringIcSt11char_traitsIcESaIcEE5c_strEv(ptr noundef nonnull align 8 dereferenceable(32) %6) #5
  invoke void (ptr, i32, ptr, ...) @_ZN32pxrInternal_v0_24__pxrReserved__18Tf_PostErrorHelperERKNS_13TfCallContextENS_16TfDiagnosticTypeEPKcz(ptr noundef nonnull align 8 dereferenceable(33) %13, i32 noundef 1, ptr noundef @.str.7, i32 noundef %44, ptr noundef %45)
          to label %46 unwind label %29

46:                                               ; preds = %43
  store i1 false, ptr %2, align 1
  store i32 1, ptr %12, align 4
  br label %48

47:                                               ; preds = %39
  store i1 true, ptr %2, align 1
  store i32 1, ptr %12, align 4
  br label %48

48:                                               ; preds = %47, %46, %28
  call void @_ZNSt7__cxx1112basic_stringIcSt11char_traitsIcESaIcEED1Ev(ptr noundef nonnull align 8 dereferenceable(32) %6) #5
  %49 = load i1, ptr %2, align 1
  ret i1 %49

50:                                               ; preds = %29
  %51 = load ptr, ptr %8, align 8
  %52 = load i32, ptr %9, align 4
  %53 = insertvalue { ptr, i32 } poison, ptr %51, 0
  %54 = insertvalue { ptr, i32 } %53, i32 %52, 1
  resume { ptr, i32 } %54
}