; Function Attrs: mustprogress uwtable
define internal fastcc noundef zeroext i1 @_ZN32pxrInternal_v0_24__pxrReserved__L24_ValidateAssetPathStringEPKc(ptr noundef %0) unnamed_addr #0 personality ptr @__gxx_personality_v0 {
  %2 = alloca ptr, align 8
  %3 = alloca %"class.std::__cxx11::basic_string", align 8
  %4 = alloca %"class.pxrInternal_v0_24__pxrReserved__::TfCallContext", align 8
  %5 = alloca %"class.pxrInternal_v0_24__pxrReserved__::TfCallContext", align 8
  store ptr %0, ptr %2, align 8
  call void @_ZNSt7__cxx1112basic_stringIcSt11char_traitsIcESaIcEEC1Ev(ptr noundef nonnull align 8 dereferenceable(32) %3) #16
  %6 = invoke fastcc noundef i32 @_ZN32pxrInternal_v0_24__pxrReserved__L9_ReadUTF8ERPKhPNSt7__cxx1112basic_stringIcSt11char_traitsIcESaIcEEE(ptr noundef nonnull align 8 dereferenceable(8) %2, ptr noundef nonnull %3)
          to label %.preheader unwind label %.loopexit.split-lp

.preheader:                                       ; preds = %1
  %7 = icmp sgt i32 %6, 0
  br i1 %7, label %.lr.ph, label %._crit_edge

.lr.ph:                                           ; preds = %.preheader, %19
  %.018 = phi i32 [ %20, %19 ], [ 1, %.preheader ]
  %.01117 = phi i32 [ %18, %19 ], [ %6, %.preheader ]
  %8 = icmp ult i32 %.01117, 32
  %9 = icmp eq i32 %.01117, 127
  %or.cond3.i = or i1 %8, %9
  %10 = and i32 %.01117, 2147483616
  %11 = icmp eq i32 %10, 128
  %or.cond = or i1 %or.cond3.i, %11
  br i1 %or.cond, label %"_ZZN32pxrInternal_v0_24__pxrReserved__L24_ValidateAssetPathStringEPKcENK3$_0clEi.exit.thread", label %17

"_ZZN32pxrInternal_v0_24__pxrReserved__L24_ValidateAssetPathStringEPKcENK3$_0clEi.exit.thread": ; preds = %.lr.ph
  store ptr @.str.5, ptr %4, align 8
  %12 = getelementptr inbounds nuw i8, ptr %4, i64 8
  store ptr @__func__._ZN32pxrInternal_v0_24__pxrReserved__L24_ValidateAssetPathStringEPKc, ptr %12, align 8
  %13 = getelementptr inbounds nuw i8, ptr %4, i64 16
  store i64 108, ptr %13, align 8
  %14 = getelementptr inbounds nuw i8, ptr %4, i64 24
  store ptr @__PRETTY_FUNCTION__._ZN32pxrInternal_v0_24__pxrReserved__L24_ValidateAssetPathStringEPKc, ptr %14, align 8
  %15 = getelementptr inbounds nuw i8, ptr %4, i64 32
  store i8 0, ptr %15, align 8
  invoke void (ptr, i32, ptr, ...) @_ZN32pxrInternal_v0_24__pxrReserved__18Tf_PostErrorHelperERKNS_13TfCallContextENS_16TfDiagnosticTypeEPKcz(ptr noundef nonnull align 8 dereferenceable(33) %4, i32 noundef 1, ptr noundef nonnull @.str.6, i32 noundef %.018, i32 noundef %.01117)
          to label %29 unwind label %.loopexit.split-lp

.loopexit:                                        ; preds = %17
  %lpad.loopexit = landingpad { ptr, i32 }
          cleanup
  br label %16

.loopexit.split-lp:                               ; preds = %1, %"_ZZN32pxrInternal_v0_24__pxrReserved__L24_ValidateAssetPathStringEPKcENK3$_0clEi.exit.thread", %23
  %lpad.loopexit.split-lp = landingpad { ptr, i32 }
          cleanup
  br label %16

16:                                               ; preds = %.loopexit.split-lp, %.loopexit
  %lpad.phi = phi { ptr, i32 } [ %lpad.loopexit, %.loopexit ], [ %lpad.loopexit.split-lp, %.loopexit.split-lp ]
  call void @_ZNSt7__cxx1112basic_stringIcSt11char_traitsIcESaIcEED1Ev(ptr noundef nonnull align 8 dereferenceable(32) %3) #16
  resume { ptr, i32 } %lpad.phi

17:                                               ; preds = %.lr.ph
  %18 = invoke fastcc noundef i32 @_ZN32pxrInternal_v0_24__pxrReserved__L9_ReadUTF8ERPKhPNSt7__cxx1112basic_stringIcSt11char_traitsIcESaIcEEE(ptr noundef nonnull align 8 dereferenceable(8) %2, ptr noundef nonnull %3)
          to label %19 unwind label %.loopexit

19:                                               ; preds = %17
  %20 = add nuw nsw i32 %.018, 1
  %21 = icmp sgt i32 %18, 0
  br i1 %21, label %.lr.ph, label %._crit_edge, !llvm.loop !4

._crit_edge:                                      ; preds = %19, %.preheader
  %.011.lcssa = phi i32 [ %6, %.preheader ], [ %18, %19 ]
  %.0.lcssa = phi i32 [ 1, %.preheader ], [ %20, %19 ]
  %22 = icmp eq i32 %.011.lcssa, -1
  br i1 %22, label %23, label %29

23:                                               ; preds = %._crit_edge
  store ptr @.str.5, ptr %5, align 8
  %24 = getelementptr inbounds nuw i8, ptr %5, i64 8
  store ptr @__func__._ZN32pxrInternal_v0_24__pxrReserved__L24_ValidateAssetPathStringEPKc, ptr %24, align 8
  %25 = getelementptr inbounds nuw i8, ptr %5, i64 16
  store i64 115, ptr %25, align 8
  %26 = getelementptr inbounds nuw i8, ptr %5, i64 24
  store ptr @__PRETTY_FUNCTION__._ZN32pxrInternal_v0_24__pxrReserved__L24_ValidateAssetPathStringEPKc, ptr %26, align 8
  %27 = getelementptr inbounds nuw i8, ptr %5, i64 32
  store i8 0, ptr %27, align 8
  %28 = call noundef ptr @_ZNKSt7__cxx1112basic_stringIcSt11char_traitsIcESaIcEE5c_strEv(ptr noundef nonnull align 8 dereferenceable(32) %3) #16
  invoke void (ptr, i32, ptr, ...) @_ZN32pxrInternal_v0_24__pxrReserved__18Tf_PostErrorHelperERKNS_13TfCallContextENS_16TfDiagnosticTypeEPKcz(ptr noundef nonnull align 8 dereferenceable(33) %5, i32 noundef 1, ptr noundef nonnull @.str.7, i32 noundef %.0.lcssa, ptr noundef %28)
          to label %29 unwind label %.loopexit.split-lp

29:                                               ; preds = %._crit_edge, %23, %"_ZZN32pxrInternal_v0_24__pxrReserved__L24_ValidateAssetPathStringEPKcENK3$_0clEi.exit.thread"
  %.010 = phi i1 [ false, %"_ZZN32pxrInternal_v0_24__pxrReserved__L24_ValidateAssetPathStringEPKcENK3$_0clEi.exit.thread" ], [ false, %23 ], [ true, %._crit_edge ]
  call void @_ZNSt7__cxx1112basic_stringIcSt11char_traitsIcESaIcEED1Ev(ptr noundef nonnull align 8 dereferenceable(32) %3) #16
  ret i1 %.010
}